Certificate:
    Data:
        Version: 3 (0x2)
        Serial Number:
            cd:d3:15:1a:91:e8:7b:13:e2:72:1a:f2:05:a9:6b:09
        Signature Algorithm: sha256WithRSAEncryption
        Issuer: CN=GAP
        Validity
            Not Before: Sep 13 02:26:29 2022 GMT
            Not After : Dec 16 02:26:29 2024 GMT
        Subject: CN=client1.domain.tld
        Subject Public Key Info:
            Public Key Algorithm: rsaEncryption
                Public-Key: (2048 bit)
                Modulus:
                    00:91:af:09:a7:13:6f:c8:fa:3f:d2:59:ec:08:37:
                    05:a5:0b:e1:9b:ae:ba:60:1e:3e:1c:03:b4:72:52:
                    e7:55:ac:9a:52:14:ea:8c:55:f4:a9:33:a3:cb:b6:
                    55:7a:dc:13:82:d8:4c:c7:1f:01:fa:28:80:66:40:
                    69:36:be:73:ee:4d:cd:5f:18:a9:b8:cc:07:07:0b:
                    6c:08:ba:f2:10:4b:51:78:42:a6:e1:66:4e:db:30:
                    11:e8:0d:62:55:9a:56:e6:22:96:37:54:cc:bf:e8:
                    6c:cc:c4:af:26:f5:13:b6:f9:bf:e7:f2:2d:f4:0b:
                    39:3e:5c:75:26:54:83:f2:b8:81:6e:b4:01:67:e5:
                    3a:21:c0:1d:fc:e3:57:cb:1f:70:e4:97:fe:aa:7d:
                    0a:e3:60:a3:15:98:78:55:0f:d0:9c:c7:72:a9:92:
                    25:14:6e:ba:39:f7:68:bf:dc:0a:a8:3b:7b:ce:21:
                    70:11:56:2f:16:c5:58:61:0e:f8:c4:cf:7d:ca:7d:
                    fe:7b:cb:1e:a5:90:a7:10:91:73:4d:45:ad:02:2d:
                    b5:36:5a:62:4f:5f:c0:92:51:31:1f:c7:e8:e3:14:
                    ff:00:d1:46:39:57:61:04:0c:20:bd:b3:18:d4:a2:
                    93:36:65:60:54:a2:b1:99:af:d2:e1:e7:79:cc:e0:
                    cb:fd
                Exponent: 65537 (0x10001)
        X509v3 extensions:
            X509v3 Basic Constraints: 
                CA:FALSE
            X509v3 Subject Key Identifier: 
                96:99:82:30:4A:BE:B5:96:F3:D1:F3:18:B0:B8:D1:C5:34:E9:36:44
            X509v3 Authority Key Identifier: 
                keyid:D0:A7:A1:72:01:08:BE:34:97:99:53:3D:94:FE:3C:B5:AD:F7:B5:AD
                DirName:/CN=GAP
                serial:73:A8:28:4A:DE:19:58:D6:B3:72:39:35:5D:C8:76:6C:24:A7:43:C8
            X509v3 Extended Key Usage: 
                TLS Web Client Authentication
            X509v3 Key Usage: 
                Digital Signature
    Signature Algorithm: sha256WithRSAEncryption
    Signature Value:
        18:85:ae:aa:76:af:a8:df:1c:c2:70:af:96:7b:ca:da:29:c6:
        67:38:25:da:dc:5b:a5:36:12:af:dc:c7:5f:63:f4:5e:14:ff:
        8f:4d:6f:f8:44:a1:4d:e5:1c:5e:eb:e2:e8:fc:c2:96:15:03:
        13:d0:3e:3b:d0:35:06:ac:3e:15:8d:18:1a:99:c2:f5:7e:5a:
        1e:81:31:0a:71:21:5b:ce:d9:37:80:dd:00:53:78:69:e4:23:
        43:b3:a8:d1:05:b3:ff:18:3f:80:bf:1c:ba:9a:b9:3f:ae:0c:
        e9:ce:2a:90:3d:27:cf:84:d0:1b:42:f9:36:ae:5b:1b:b1:f0:
        37:8a:28:89:b3:0c:8a:1a:80:4a:44:9d:f9:be:88:f0:12:5b:
        02:31:d0:11:3f:7d:17:e2:60:8a:02:33:82:bb:a6:ef:0d:17:
        a6:55:d1:3a:f6:a3:bf:8f:da:9f:c1:d7:27:80:5c:86:38:a9:
        d5:b2:dc:0c:ff:92:cf:52:6a:b5:49:bd:36:de:5b:78:f2:43:
        f4:52:85:d9:28:77:93:23:68:26:07:f8:45:d1:fb:40:6b:ae:
        03:f4:3b:97:41:15:07:4c:78:4f:31:31:49:08:b5:40:94:ac:
        2d:c4:d5:3f:33:76:ce:44:4d:3e:9a:f3:3e:96:9d:db:cf:f8:
        24:c0:e6:73
-----BEGIN CERTIFICATE-----
MIIDUTCCAjmgAwIBAgIRAM3TFRqR6HsT4nIa8gWpawkwDQYJKoZIhvcNAQELBQAw
DjEMMAoGA1UEAwwDR0FQMB4XDTIyMDkxMzAyMjYyOVoXDTI0MTIxNjAyMjYyOVow
HTEbMBkGA1UEAwwSY2xpZW50MS5kb21haW4udGxkMIIBIjANBgkqhkiG9w0BAQEF
AAOCAQ8AMIIBCgKCAQEAka8JpxNvyPo/0lnsCDcFpQvhm666YB4+HAO0clLnVaya
UhTqjFX0qTOjy7ZVetwTgthMxx8B+iiAZkBpNr5z7k3NXxipuMwHBwtsCLryEEtR
eEKm4WZO2zAR6A1iVZpW5iKWN1TMv+hszMSvJvUTtvm/5/It9As5Plx1JlSD8riB
brQBZ+U6IcAd/ONXyx9w5Jf+qn0K42CjFZh4VQ/QnMdyqZIlFG66Ofdov9wKqDt7
ziFwEVYvFsVYYQ74xM99yn3+e8sepZCnEJFzTUWtAi21NlpiT1/AklExH8fo4xT/
ANFGOVdhBAwgvbMY1KKTNmVgVKKxma/S4ed5zODL/QIDAQABo4GaMIGXMAkGA1Ud
EwQCMAAwHQYDVR0OBBYEFJaZgjBKvrWW89HzGLC40cU06TZEMEkGA1UdIwRCMECA
FNCnoXIBCL40l5lTPZT+PLWt97WtoRKkEDAOMQwwCgYDVQQDDANHQVCCFHOoKEre
GVjWs3I5NV3Idmwkp0PIMBMGA1UdJQQMMAoGCCsGAQUFBwMCMAsGA1UdDwQEAwIH
gDANBgkqhkiG9w0BAQsFAAOCAQEAGIWuqnavqN8cwnCvlnvK2inGZzgl2txbpTYS
r9zHX2P0XhT/j01v+EShTeUcXuvi6PzClhUDE9A+O9A1Bqw+FY0YGpnC9X5aHoEx
CnEhW87ZN4DdAFN4aeQjQ7Oo0QWz/xg/gL8cupq5P64M6c4qkD0nz4TQG0L5Nq5b
G7HwN4ooibMMihqASkSd+b6I8BJbAjHQET99F+JgigIzgrum7w0XplXROvajv4/a
n8HXJ4Bchjip1bLcDP+Sz1JqtUm9Nt5bePJD9FKF2Sh3kyNoJgf4RdH7QGuuA/Q7
l0EVB0x4TzExSQi1QJSsLcTVPzN2zkRNPprzPpad28/4JMDmcw==
-----END CERTIFICATE-----
